; ModuleID = '38/43.c'
source_filename = "38/43.c"
target datalayout = "e-m:e-p270:32:32-p271:32:32-p272:64:64-i64:64-f80:128-n8:16:32:64-S128"
target triple = "x86_64-pc-linux-gnu"

@.str = private unnamed_addr constant [3 x i8] c"%d\00", align 1
@.str.1 = private unnamed_addr constant [4 x i8] c"%lf\00", align 1
@.str.2 = private unnamed_addr constant [7 x i8] c"%.5lf\0A\00", align 1

; Function Attrs: noinline nounwind uwtable
define dso_local i32 @main(i32 %0, i8** %1) #0 {
  %3 = alloca i32, align 4
  %4 = alloca i32, align 4
  %5 = alloca i8**, align 8
  %6 = alloca i32, align 4
  %7 = alloca i32, align 4
  %8 = alloca i32, align 4
  %9 = alloca i32, align 4
  %10 = alloca [1001 x double], align 16
  %11 = alloca double, align 8
  %12 = alloca double, align 8
  %13 = alloca double, align 8
  %14 = alloca double*, align 8
  store i32 0, i32* %3, align 4
  store i32 %0, i32* %4, align 4
  store i8** %1, i8*** %5, align 8
  %15 = call i32 (i8*, ...) @__isoc99_scanf(i8* getelementptr inbounds ([3 x i8], [3 x i8]* @.str, i64 0, i64 0), i32* %6)
  store i32 1, i32* %7, align 4
  br label %16

16:                                               ; preds = %75, %2
  %17 = load i32, i32* %7, align 4
  %18 = load i32, i32* %6, align 4
  %19 = icmp sle i32 %17, %18
  br i1 %19, label %20, label %78

20:                                               ; preds = %16
  %21 = call i32 (i8*, ...) @__isoc99_scanf(i8* getelementptr inbounds ([3 x i8], [3 x i8]* @.str, i64 0, i64 0), i32* %9)
  %22 = getelementptr inbounds [1001 x double], [1001 x double]* %10, i64 0, i64 0
  store double* %22, double** %14, align 8
  store double 0.000000e+00, double* %13, align 8
  store double 0.000000e+00, double* %12, align 8
  store i32 1, i32* %8, align 4
  br label %23

23:                                               ; preds = %40, %20
  %24 = load i32, i32* %8, align 4
  %25 = load i32, i32* %9, align 4
  %26 = icmp sle i32 %24, %25
  br i1 %26, label %27, label %43

27:                                               ; preds = %23
  %28 = load double*, double** %14, align 8
  %29 = load i32, i32* %8, align 4
  %30 = sext i32 %29 to i64
  %31 = getelementptr inbounds double, double* %28, i64 %30
  %32 = call i32 (i8*, ...) @__isoc99_scanf(i8* getelementptr inbounds ([4 x i8], [4 x i8]* @.str.1, i64 0, i64 0), double* %31)
  %33 = load double*, double** %14, align 8
  %34 = load i32, i32* %8, align 4
  %35 = sext i32 %34 to i64
  %36 = getelementptr inbounds double, double* %33, i64 %35
  %37 = load double, double* %36, align 8
  %38 = load double, double* %13, align 8
  %39 = fadd double %38, %37
  store double %39, double* %13, align 8
  br label %40

40:                                               ; preds = %27
  %41 = load i32, i32* %8, align 4
  %42 = add nsw i32 %41, 1
  store i32 %42, i32* %8, align 4
  br label %23

43:                                               ; preds = %23
  %44 = load i32, i32* %9, align 4
  %45 = sitofp i32 %44 to double
  %46 = load double, double* %13, align 8
  %47 = fdiv double %46, %45
  store double %47, double* %13, align 8
  store i32 1, i32* %8, align 4
  br label %48

48:                                               ; preds = %63, %43
  %49 = load i32, i32* %8, align 4
  %50 = load i32, i32* %9, align 4
  %51 = icmp sle i32 %49, %50
  br i1 %51, label %52, label %66

52:                                               ; preds = %48
  %53 = load double*, double** %14, align 8
  %54 = load i32, i32* %8, align 4
  %55 = sext i32 %54 to i64
  %56 = getelementptr inbounds double, double* %53, i64 %55
  %57 = load double, double* %56, align 8
  %58 = load double, double* %13, align 8
  %59 = fsub double %57, %58
  %60 = call double @pow(double %59, double 2.000000e+00) #3
  %61 = load double, double* %12, align 8
  %62 = fadd double %61, %60
  store double %62, double* %12, align 8
  br label %63

63:                                               ; preds = %52
  %64 = load i32, i32* %8, align 4
  %65 = add nsw i32 %64, 1
  store i32 %65, i32* %8, align 4
  br label %48

66:                                               ; preds = %48
  %67 = load i32, i32* %9, align 4
  %68 = sitofp i32 %67 to double
  %69 = load double, double* %12, align 8
  %70 = fdiv double %69, %68
  store double %70, double* %12, align 8
  %71 = load double, double* %12, align 8
  %72 = call double @sqrt(double %71) #3
  store double %72, double* %11, align 8
  %73 = load double, double* %11, align 8
  %74 = call i32 (i8*, ...) @printf(i8* getelementptr inbounds ([7 x i8], [7 x i8]* @.str.2, i64 0, i64 0), double %73)
  br label %75

75:                                               ; preds = %66
  %76 = load i32, i32* %7, align 4
  %77 = add nsw i32 %76, 1
  store i32 %77, i32* %7, align 4
  br label %16

78:                                               ; preds = %16
  ret i32 0
}

declare dso_local i32 @__isoc99_scanf(i8*, ...) #1

; Function Attrs: nounwind
declare dso_local double @pow(double, double) #2

; Function Attrs: nounwind
declare dso_local double @sqrt(double) #2

declare dso_local i32 @printf(i8*, ...) #1


!llvm.module.flags = !{!0}
!llvm.ident = !{!1}

!0 = !{i32 1, !"wchar_size", i32 4}
!1 = !{!"clang version 10.0.0-4ubuntu1 "}
